target datalayout = "e-m:e-p270:32:32-p271:32:32-p272:64:64-i64:64-i128:128-f80:128-n8:16:32:64-S128"
target triple = "x86_64-pc-linux-gnu"

%struct.hwloc_xml_backend_data_s = type { ptr, ptr, ptr, ptr, ptr, ptr, ptr, ptr, ptr, ptr, ptr, i32, i32, i8, i8, i8, i8, i8, i8 }

@.str.2 = private unnamed_addr constant [1 x i8] zeroinitializer, align 1
@hwloc_libxml2_init_once.checked = internal global i32 0, align 4
@.str.3 = private unnamed_addr constant [21 x i8] c"HWLOC_LIBXML_CLEANUP\00", align 1
@hwloc_libxml2_needs_cleanup = internal global i32 0, align 4

; Function Attrs: nounwind uwtable
define internal void @hwloc_libxml2_cleanup() #0 {
  %1 = load i32, ptr @hwloc_libxml2_needs_cleanup, align 4, !tbaa !12
  %2 = icmp ne i32 %1, 0
  br i1 %2, label %3, label %4

3:                                                ; preds = %0
  call void @xmlCleanupParser()
  br label %4

4:                                                ; preds = %3, %0
  ret void
}

; Function Attrs: nounwind uwtable
define internal void @hwloc_libxml2_init_once() #0 {
  %1 = load i32, ptr @hwloc_libxml2_init_once.checked, align 4, !tbaa !12
  %2 = icmp ne i32 %1, 0
  br i1 %2, label %16, label %3

3:                                                ; preds = %0
  %4 = call i32 @hwloc__xml_verbose()
  %5 = icmp ne i32 %4, 0
  br i1 %5, label %6, label %9

6:                                                ; preds = %3
  %7 = call ptr @__xmlGenericError()
  %8 = load ptr, ptr %7, align 8, !tbaa !29
  br label %10

9:                                                ; preds = %3
  br label %10

10:                                               ; preds = %9, %6
  %11 = phi ptr [ %8, %6 ], [ @hwloc_libxml2_error_callback, %9 ]
  call void @xmlSetGenericErrorFunc(ptr noundef null, ptr noundef %11)
  %12 = call ptr @getenv(ptr noundef @.str.3) #7
  %13 = icmp ne ptr %12, null
  br i1 %13, label %14, label %15

14:                                               ; preds = %10
  store i32 1, ptr @hwloc_libxml2_needs_cleanup, align 4, !tbaa !12
  br label %15

15:                                               ; preds = %14, %10
  store i32 1, ptr @hwloc_libxml2_init_once.checked, align 4, !tbaa !12
  br label %16

16:                                               ; preds = %15, %0
  ret void
}

; Function Attrs: nounwind uwtable
define internal i32 @hwloc_libxml_backend_init(ptr noundef %0, ptr noundef %1, ptr noundef %2, i32 noundef %3) #0 {
  %5 = alloca i32, align 4
  %6 = alloca ptr, align 8
  %7 = alloca ptr, align 8
  %8 = alloca ptr, align 8
  %9 = alloca i32, align 4
  %10 = alloca ptr, align 8
  %11 = alloca i32, align 4
  store ptr %0, ptr %6, align 8, !tbaa !10
  store ptr %1, ptr %7, align 8, !tbaa !7
  store ptr %2, ptr %8, align 8, !tbaa !7
  store i32 %3, ptr %9, align 4, !tbaa !12
  call void @llvm.lifetime.start.p0(i64 8, ptr %10) #7
  store ptr null, ptr %10, align 8, !tbaa !14
  call void @xmlCheckVersion(i32 noundef 20913)
  call void @hwloc_libxml2_init_once()
  %12 = call ptr @__errno_location() #8
  store i32 0, ptr %12, align 4, !tbaa !12
  %13 = load ptr, ptr %7, align 8, !tbaa !7
  %14 = icmp ne ptr %13, null
  br i1 %14, label %15, label %18

15:                                               ; preds = %4
  %16 = load ptr, ptr %7, align 8, !tbaa !7
  %17 = call ptr @xmlReadFile(ptr noundef %16, ptr noundef null, i32 noundef 256)
  store ptr %17, ptr %10, align 8, !tbaa !14
  br label %27

18:                                               ; preds = %4
  %19 = load ptr, ptr %8, align 8, !tbaa !7
  %20 = icmp ne ptr %19, null
  br i1 %20, label %21, label %26

21:                                               ; preds = %18
  %22 = load ptr, ptr %8, align 8, !tbaa !7
  %23 = load i32, ptr %9, align 4, !tbaa !12
  %24 = sub nsw i32 %23, 1
  %25 = call ptr @xmlReadMemory(ptr noundef %22, i32 noundef %24, ptr noundef @.str.2, ptr noundef null, i32 noundef 256)
  store ptr %25, ptr %10, align 8, !tbaa !14
  br label %26

26:                                               ; preds = %21, %18
  br label %27

27:                                               ; preds = %26, %15
  %28 = load ptr, ptr %10, align 8, !tbaa !14
  %29 = icmp ne ptr %28, null
  br i1 %29, label %37, label %30

30:                                               ; preds = %27
  %31 = call ptr @__errno_location() #8
  %32 = load i32, ptr %31, align 4, !tbaa !12
  %33 = icmp ne i32 %32, 0
  br i1 %33, label %36, label %34

34:                                               ; preds = %30
  %35 = call ptr @__errno_location() #8
  store i32 22, ptr %35, align 4, !tbaa !12
  br label %36

36:                                               ; preds = %34, %30
  call void @hwloc_libxml2_cleanup()
  store i32 -1, ptr %5, align 4
  store i32 1, ptr %11, align 4
  br label %47

37:                                               ; preds = %27
  %38 = load ptr, ptr %6, align 8, !tbaa !10
  %39 = getelementptr inbounds nuw %struct.hwloc_xml_backend_data_s, ptr %38, i32 0, i32 0
  store ptr @hwloc_libxml_look_init, ptr %39, align 8, !tbaa !16
  %40 = load ptr, ptr %6, align 8, !tbaa !10
  %41 = getelementptr inbounds nuw %struct.hwloc_xml_backend_data_s, ptr %40, i32 0, i32 1
  store ptr @hwloc_libxml_look_done, ptr %41, align 8, !tbaa !18
  %42 = load ptr, ptr %6, align 8, !tbaa !10
  %43 = getelementptr inbounds nuw %struct.hwloc_xml_backend_data_s, ptr %42, i32 0, i32 2
  store ptr @hwloc_libxml_backend_exit, ptr %43, align 8, !tbaa !19
  %44 = load ptr, ptr %10, align 8, !tbaa !14
  %45 = load ptr, ptr %6, align 8, !tbaa !10
  %46 = getelementptr inbounds nuw %struct.hwloc_xml_backend_data_s, ptr %45, i32 0, i32 10
  store ptr %44, ptr %46, align 8, !tbaa !20
  store i32 0, ptr %5, align 4
  store i32 1, ptr %11, align 4
  br label %47

47:                                               ; preds = %37, %36
  call void @llvm.lifetime.end.p0(i64 8, ptr %10) #7
  %48 = load i32, ptr %5, align 4
  ret i32 %48
}