; Function Attrs: nounwind uwtable
define internal range(i32 -1, 1) i32 @hwloc_libxml_backend_init(ptr noundef writeonly captures(none) %0, ptr noundef %1, ptr noundef %2, i32 noundef %3) #1 {
  tail call void @xmlCheckVersion(i32 noundef 20913) #11
  %.b.i = load i1, ptr @hwloc_libxml2_init_once.checked, align 4
  br i1 %.b.i, label %hwloc_libxml2_init_once.exit, label %5

5:                                                ; preds = %4
  %6 = tail call i32 @hwloc__xml_verbose() #11
  %.not.i = icmp eq i32 %6, 0
  br i1 %.not.i, label %10, label %7

7:                                                ; preds = %5
  %8 = tail call ptr @__xmlGenericError() #11
  %9 = load ptr, ptr %8, align 8, !tbaa !3
  br label %10

10:                                               ; preds = %7, %5
  %11 = phi ptr [ %9, %7 ], [ @hwloc_libxml2_error_callback, %5 ]
  tail call void @xmlSetGenericErrorFunc(ptr noundef null, ptr noundef %11) #11
  %12 = tail call ptr @getenv(ptr noundef nonnull @.str.3) #11
  %.not1.i = icmp eq ptr %12, null
  br i1 %.not1.i, label %14, label %13

13:                                               ; preds = %10
  store i1 true, ptr @hwloc_libxml2_needs_cleanup, align 4
  br label %14

14:                                               ; preds = %13, %10
  store i1 true, ptr @hwloc_libxml2_init_once.checked, align 4
  br label %hwloc_libxml2_init_once.exit

hwloc_libxml2_init_once.exit:                     ; preds = %4, %14
  %15 = tail call ptr @__errno_location() #12
  store i32 0, ptr %15, align 4, !tbaa !7
  %.not = icmp eq ptr %1, null
  br i1 %.not, label %18, label %16

16:                                               ; preds = %hwloc_libxml2_init_once.exit
  %17 = tail call ptr @xmlReadFile(ptr noundef nonnull %1, ptr noundef null, i32 noundef 256) #11
  br label %22

18:                                               ; preds = %hwloc_libxml2_init_once.exit
  %.not14 = icmp eq ptr %2, null
  br i1 %.not14, label %.thread20, label %19

19:                                               ; preds = %18
  %20 = add nsw i32 %3, -1
  %21 = tail call ptr @xmlReadMemory(ptr noundef nonnull %2, i32 noundef %20, ptr noundef nonnull @.str.2, ptr noundef null, i32 noundef 256) #11
  br label %22

22:                                               ; preds = %19, %16
  %.0 = phi ptr [ %17, %16 ], [ %21, %19 ]
  %.not15 = icmp eq ptr %.0, null
  br i1 %.not15, label %23, label %26

23:                                               ; preds = %22
  %.pr = load i32, ptr %15, align 4, !tbaa !7
  %.not16 = icmp eq i32 %.pr, 0
  br i1 %.not16, label %.thread20, label %24

.thread20:                                        ; preds = %18, %23
  store i32 22, ptr %15, align 4, !tbaa !7
  br label %24

24:                                               ; preds = %.thread20, %23
  %.b.i17 = load i1, ptr @hwloc_libxml2_needs_cleanup, align 4
  br i1 %.b.i17, label %25, label %hwloc_libxml2_cleanup.exit

25:                                               ; preds = %24
  tail call void @xmlCleanupParser() #11
  br label %hwloc_libxml2_cleanup.exit

26:                                               ; preds = %22
  store ptr @hwloc_libxml_look_init, ptr %0, align 8, !tbaa !9
  %27 = getelementptr inbounds nuw i8, ptr %0, i64 8
  store ptr @hwloc_libxml_look_done, ptr %27, align 8, !tbaa !12
  %28 = getelementptr inbounds nuw i8, ptr %0, i64 16
  store ptr @hwloc_libxml_backend_exit, ptr %28, align 8, !tbaa !13
  %29 = getelementptr inbounds nuw i8, ptr %0, i64 80
  store ptr %.0, ptr %29, align 8, !tbaa !14
  br label %hwloc_libxml2_cleanup.exit

hwloc_libxml2_cleanup.exit:                       ; preds = %25, %24, %26
  %.011 = phi i32 [ 0, %26 ], [ -1, %24 ], [ -1, %25 ]
  ret i32 %.011
}